; Function Attrs: mustprogress nounwind uwtable
define hidden void @_ZN9xmlStream13va_begin_elemEPKcP13__va_list_tag(ptr noundef nonnull align 8 dereferenceable(152) %0, ptr noundef %1, ptr noundef %2) local_unnamed_addr #0 align 2 {
  %4 = alloca [2048 x i8], align 16
  %5 = alloca i64, align 8
  call void @llvm.lifetime.start.p0(i64 2048, ptr nonnull %4)
  call void @llvm.lifetime.start.p0(i64 8, ptr nonnull %5)
  %6 = call noundef ptr @_ZN12outputStream12do_vsnprintfEPcmPKcP13__va_list_tagbRm(ptr noundef nonnull %4, i64 noundef 2048, ptr noundef %1, ptr noundef %2, i1 noundef zeroext false, ptr noundef nonnull align 8 dereferenceable(8) %5) #8
  %7 = load ptr, ptr %0, align 8
  %8 = getelementptr inbounds i8, ptr %7, i64 40
  %9 = load ptr, ptr %8, align 8
  call void %9(ptr noundef nonnull align 8 dereferenceable(152) %0, ptr noundef %6, i1 noundef zeroext false) #8
  call void @_ZN12outputStream9print_rawEPKcm(ptr noundef nonnull align 8 dereferenceable(56) %0, ptr noundef nonnull @.str.8, i64 noundef 1) #8
  %10 = load i64, ptr %5, align 8
  %11 = load ptr, ptr %0, align 8
  %12 = getelementptr inbounds i8, ptr %11, i64 8
  %13 = load ptr, ptr %12, align 8
  call void %13(ptr noundef nonnull align 8 dereferenceable(152) %0, ptr noundef %6, i64 noundef %10) #8
  %14 = getelementptr inbounds i8, ptr %0, i64 72
  store i32 2, ptr %14, align 8
  call void @llvm.lifetime.end.p0(i64 2048, ptr nonnull %4)
  call void @llvm.lifetime.end.p0(i64 8, ptr nonnull %5)
  ret void
}